target datalayout = "e-m:e-p270:32:32-p271:32:32-p272:64:64-i64:64-i128:128-f80:128-n8:16:32:64-S128"
target triple = "x86_64-pc-linux-gnu"

@_ZN7VM_Exit10_vm_exitedE = external global i8, align 1

; Function Attrs: mustprogress nounwind uwtable
define linkonce_odr hidden void @_ZN2os22verify_stack_alignmentEv() #1 comdat align 2 {
  ret void
}

; Function Attrs: mustprogress nounwind uwtable
define linkonce_odr hidden void @_ZN7VM_Exit18block_if_vm_exitedEv() #1 comdat align 2 {
  %1 = load volatile i8, ptr @_ZN7VM_Exit10_vm_exitedE, align 1
  %2 = trunc i8 %1 to i1
  br i1 %2, label %3, label %4

3:                                                ; preds = %0
  call void @_ZN7VM_Exit17wait_if_vm_exitedEv()
  br label %4

4:                                                ; preds = %3, %0
  ret void
}

; Function Attrs: mustprogress nounwind uwtable
define i64 @JVM_GetNanoTimeAdjustment(ptr noundef %0, ptr noundef %1, i64 noundef %2) #1 {
  %4 = alloca i64, align 8
  %5 = alloca ptr, align 8
  %6 = alloca ptr, align 8
  %7 = alloca i64, align 8
  %8 = alloca i64, align 8
  %9 = alloca i64, align 8
  %10 = alloca i64, align 8
  store ptr %0, ptr %5, align 8
  store ptr %1, ptr %6, align 8
  store i64 %2, ptr %7, align 8
  call void @_ZN7VM_Exit18block_if_vm_exitedEv()
  call void @_ZN2os22verify_stack_alignmentEv()
  call void @_ZN2os17javaTimeSystemUTCERlS0_(ptr noundef nonnull align 8 dereferenceable(8) %8, ptr noundef nonnull align 8 dereferenceable(8) %9)
  %11 = load i64, ptr %8, align 8
  %12 = load i64, ptr %7, align 8
  %13 = sub nsw i64 %11, %12
  store i64 %13, ptr %10, align 8
  %14 = load i64, ptr %10, align 8
  %15 = icmp sge i64 %14, 4294967296
  br i1 %15, label %19, label %16

16:                                               ; preds = %3
  %17 = load i64, ptr %10, align 8
  %18 = icmp sle i64 %17, -4294967296
  br i1 %18, label %19, label %20

19:                                               ; preds = %16, %3
  store i64 -1, ptr %4, align 8
  br label %25

20:                                               ; preds = %16
  %21 = load i64, ptr %10, align 8
  %22 = mul nsw i64 %21, 1000000000
  %23 = load i64, ptr %9, align 8
  %24 = add nsw i64 %22, %23
  store i64 %24, ptr %4, align 8
  br label %25

25:                                               ; preds = %20, %19
  %26 = load i64, ptr %4, align 8
  ret i64 %26
}