; Function Attrs: mustprogress nounwind uwtable
define i64 @JVM_GetNanoTimeAdjustment(ptr nocapture noundef readnone %0, ptr nocapture noundef readnone %1, i64 noundef %2) local_unnamed_addr #0 {
  %4 = alloca i64, align 8
  %5 = alloca i64, align 8
  %6 = load volatile i8, ptr @_ZN7VM_Exit10_vm_exitedE, align 1
  %7 = trunc i8 %6 to i1
  br i1 %7, label %8, label %_ZN7VM_Exit18block_if_vm_exitedEv.exit

8:                                                ; preds = %3
  tail call void @_ZN7VM_Exit17wait_if_vm_exitedEv() #16
  br label %_ZN7VM_Exit18block_if_vm_exitedEv.exit

_ZN7VM_Exit18block_if_vm_exitedEv.exit:           ; preds = %3, %8
  call void @_ZN2os17javaTimeSystemUTCERlS0_(ptr noundef nonnull align 8 dereferenceable(8) %4, ptr noundef nonnull align 8 dereferenceable(8) %5) #16
  %9 = load i64, ptr %4, align 8
  %10 = sub nsw i64 %9, %2
  %11 = add i64 %10, -4294967296
  %or.cond = icmp ult i64 %11, -8589934591
  %12 = mul nsw i64 %10, 1000000000
  %13 = load i64, ptr %5, align 8
  %14 = add nsw i64 %12, %13
  %.0 = select i1 %or.cond, i64 -1, i64 %14
  ret i64 %.0
}